target datalayout = "e-m:e-p270:32:32-p271:32:32-p272:64:64-i64:64-i128:128-f80:128-n8:16:32:64-S128"
target triple = "x86_64-pc-linux-gnu"

; Function Attrs: nounwind uwtable
define dso_local ptr @lpNew(i64 noundef %0) #0 {
  %2 = alloca ptr, align 8
  %3 = alloca i64, align 8
  %4 = alloca ptr, align 8
  %5 = alloca i32, align 4
  store i64 %0, ptr %3, align 8, !tbaa !10
  call void @llvm.lifetime.start.p0(i64 8, ptr %4) #10
  %6 = load i64, ptr %3, align 8, !tbaa !10
  %7 = icmp ugt i64 %6, 7
  br i1 %7, label %8, label %10

8:                                                ; preds = %1
  %9 = load i64, ptr %3, align 8, !tbaa !10
  br label %11

10:                                               ; preds = %1
  br label %11

11:                                               ; preds = %10, %8
  %12 = phi i64 [ %9, %8 ], [ 7, %10 ]
  %13 = call ptr @zmalloc_usable(i64 noundef %12, ptr noundef null)
  store ptr %13, ptr %4, align 8, !tbaa !5
  %14 = load ptr, ptr %4, align 8, !tbaa !5
  %15 = icmp eq ptr %14, null
  br i1 %15, label %16, label %17

16:                                               ; preds = %11
  store ptr null, ptr %2, align 8
  store i32 1, ptr %5, align 4
  br label %39

17:                                               ; preds = %11
  br label %18

18:                                               ; preds = %17
  %19 = load ptr, ptr %4, align 8, !tbaa !5
  %20 = getelementptr inbounds i8, ptr %19, i64 0
  store i8 7, ptr %20, align 1, !tbaa !12
  %21 = load ptr, ptr %4, align 8, !tbaa !5
  %22 = getelementptr inbounds i8, ptr %21, i64 1
  store i8 0, ptr %22, align 1, !tbaa !12
  %23 = load ptr, ptr %4, align 8, !tbaa !5
  %24 = getelementptr inbounds i8, ptr %23, i64 2
  store i8 0, ptr %24, align 1, !tbaa !12
  %25 = load ptr, ptr %4, align 8, !tbaa !5
  %26 = getelementptr inbounds i8, ptr %25, i64 3
  store i8 0, ptr %26, align 1, !tbaa !12
  br label %27

27:                                               ; preds = %18
  br label %28

28:                                               ; preds = %27
  br label %29

29:                                               ; preds = %28
  %30 = load ptr, ptr %4, align 8, !tbaa !5
  %31 = getelementptr inbounds i8, ptr %30, i64 4
  store i8 0, ptr %31, align 1, !tbaa !12
  %32 = load ptr, ptr %4, align 8, !tbaa !5
  %33 = getelementptr inbounds i8, ptr %32, i64 5
  store i8 0, ptr %33, align 1, !tbaa !12
  br label %34

34:                                               ; preds = %29
  br label %35

35:                                               ; preds = %34
  %36 = load ptr, ptr %4, align 8, !tbaa !5
  %37 = getelementptr inbounds i8, ptr %36, i64 6
  store i8 -1, ptr %37, align 1, !tbaa !12
  %38 = load ptr, ptr %4, align 8, !tbaa !5
  store ptr %38, ptr %2, align 8
  store i32 1, ptr %5, align 4
  br label %39

39:                                               ; preds = %35, %16
  call void @llvm.lifetime.end.p0(i64 8, ptr %4) #10
  %40 = load ptr, ptr %2, align 8
  ret ptr %40
}