; Function Attrs: nounwind uwtable
define dso_local ptr @lpNew(i64 noundef %0) local_unnamed_addr #3 {
  %2 = tail call i64 @llvm.umax.i64(i64 %0, i64 7)
  %3 = tail call ptr @zmalloc_usable(i64 noundef %2, ptr noundef null) #20
  %4 = icmp eq ptr %3, null
  br i1 %4, label %8, label %5

5:                                                ; preds = %1
  store i8 7, ptr %3, align 1, !tbaa !5
  %6 = getelementptr inbounds nuw i8, ptr %3, i64 1
  %7 = getelementptr inbounds nuw i8, ptr %3, i64 6
  tail call void @llvm.memset.p0.i64(ptr noundef nonnull align 1 dereferenceable(5) %6, i8 0, i64 5, i1 false)
  store i8 -1, ptr %7, align 1, !tbaa !5
  br label %8

8:                                                ; preds = %1, %5
  ret ptr %3
}